Certificate:
    Data:
        Version: 3 (0x2)
        Serial Number:
            c2:b7:65:3e:f2:f7:b9:0a:88:9d:65:d5:72:03:dd:00
        Signature Algorithm: sha256WithRSAEncryption
        Issuer: CN=ChangeMe
        Validity
            Not Before: Apr 30 20:50:13 2022 GMT
            Not After : Apr 27 20:50:13 2032 GMT
        Subject: CN=client1
        Subject Public Key Info:
            Public Key Algorithm: rsaEncryption
                RSA Public-Key: (4096 bit)
                Modulus:
                    00:c1:95:4b:2e:f0:62:11:3d:63:f8:c4:6f:70:8d:
                    22:4e:25:46:67:db:0e:04:0f:ea:db:9d:7b:4f:68:
                    c5:de:ea:e7:18:a3:bf:b0:1d:c1:a5:ad:9c:ce:09:
                    a0:2e:b8:bd:5d:36:d7:1d:09:08:d7:80:3f:2f:24:
                    fe:e1:0e:00:aa:a1:19:57:f5:ca:79:9e:9c:a9:62:
                    3c:20:e0:2d:40:77:06:e7:c1:66:f9:e1:aa:02:68:
                    a4:46:02:b9:80:64:ad:79:53:ba:4a:a0:55:52:58:
                    1a:27:35:87:59:ee:f7:c4:3a:a0:ad:3c:ea:89:46:
                    6d:79:f4:67:d4:88:af:88:5e:82:ae:3d:2d:58:ba:
                    85:6c:10:07:b4:c5:ce:4e:e2:e8:12:19:52:88:98:
                    b7:78:5b:34:ab:65:fd:7c:e1:76:c3:7c:23:2d:79:
                    86:bf:0f:f7:13:ef:f9:8c:fb:3c:1d:7d:d9:06:f7:
                    1f:dd:68:22:e1:40:fd:2b:8e:3e:82:8a:fc:b9:22:
                    56:15:bc:09:8e:83:c3:cb:e3:a2:68:57:6a:b7:f5:
                    39:c9:70:79:56:29:24:6f:e5:a2:ef:b1:02:f2:e1:
                    ff:0b:b0:65:d7:62:f7:44:ce:1c:b7:91:4a:8a:dc:
                    a0:de:d3:c1:47:1b:67:79:34:f2:75:01:ad:a6:09:
                    43:35:6f:a4:4c:f3:e8:38:dc:1f:4b:8b:46:93:8f:
                    fc:17:73:70:21:de:58:18:0d:67:44:34:61:d0:0e:
                    c1:d1:80:8b:9d:de:fa:03:51:c8:ac:4c:7f:53:0f:
                    64:16:54:7e:1d:45:2b:9b:c6:8e:28:89:3a:2c:51:
                    fe:2d:0d:fe:b1:33:7c:ec:9e:46:53:b0:37:95:78:
                    03:17:28:b9:76:9e:21:32:19:bb:74:1e:7f:6e:e3:
                    d4:05:23:71:3b:11:36:41:2e:ce:6d:5b:9c:ae:7c:
                    65:3f:98:84:91:4e:d5:bc:b0:ac:61:8b:46:66:bd:
                    a1:34:ce:02:4a:91:03:e1:34:68:0a:b7:28:a5:25:
                    38:da:e2:6a:81:1f:b7:df:a5:f9:22:20:e3:54:b6:
                    24:62:f6:e8:21:9f:6b:a5:02:cc:31:17:c6:c9:d3:
                    4d:0f:69:96:6f:7d:65:4e:88:71:d9:98:dc:75:e9:
                    3e:4b:a0:60:d2:da:9e:1a:ce:f1:f1:c6:6c:d6:f1:
                    b9:13:be:66:8a:0a:e5:c8:a2:b8:4b:56:f3:09:a1:
                    5a:0c:98:07:39:bf:68:9b:63:e6:ef:0d:68:c3:43:
                    46:13:8b:e1:f9:3e:c3:2a:30:57:7e:d2:af:e8:cf:
                    11:ae:74:c4:33:b6:99:64:ff:c5:ac:4e:a9:9a:a5:
                    6a:d7:5b
                Exponent: 65537 (0x10001)
        X509v3 extensions:
            X509v3 Basic Constraints: 
                CA:FALSE
            X509v3 Subject Key Identifier: 
                52:60:D3:86:10:CE:39:CD:DF:75:28:D9:FD:9F:2C:25:3E:C5:62:01
            X509v3 Authority Key Identifier: 
                keyid:0C:CE:6D:F7:3A:E7:4B:C2:89:E9:F3:70:C6:09:9A:0F:C7:34:AC:2D
                DirName:/CN=ChangeMe
                serial:59:4E:52:62:09:07:52:74:33:B9:6D:16:54:6A:C9:C6:B9:84:DD:BE

            X509v3 Extended Key Usage: 
                TLS Web Client Authentication
            X509v3 Key Usage: 
                Digital Signature
            X509v3 Subject Alternative Name: 
                URI:urn:test:client1
    Signature Algorithm: sha256WithRSAEncryption
         0f:07:5f:22:ce:e0:2a:6c:e6:f2:9e:ae:07:e5:7f:f1:ef:db:
         3c:cd:db:38:3a:26:bf:88:2c:c0:77:60:1b:f6:fc:31:72:25:
         0f:55:15:da:cb:fd:75:5b:b1:24:66:3c:72:66:80:bb:bf:32:
         97:5f:76:81:94:b0:b3:db:a0:c8:bd:36:a9:d1:d0:e4:f9:b9:
         20:cd:de:b5:11:9d:90:92:b6:b9:ac:86:59:2e:cf:f6:2e:db:
         ab:d6:7f:d8:03:8e:0b:d2:4f:2f:02:22:cc:12:1c:92:fd:b8:
         d4:fc:14:e4:9d:79:c8:09:b0:ff:a6:c1:e0:13:1b:c5:4f:15:
         cb:25:8c:d0:85:cd:d2:90:c9:28:fd:be:97:c3:0f:41:40:36:
         ad:ca:c6:46:fa:cc:17:d9:07:70:f9:bc:43:fa:40:b1:a0:96:
         04:8b:74:6a:64:9d:21:e0:07:3c:e8:a7:46:8f:8e:63:cc:7c:
         e1:b0:a1:2d:e7:5e:2d:1a:d2:c3:88:d9:23:2e:3c:cf:05:9f:
         2a:b9:64:47:05:ec:63:71:cb:4e:bd:cd:52:bb:a3:01:b7:60:
         24:f0:92:59:a4:fd:5b:a4:ce:25:08:63:94:26:e2:c1:da:52:
         23:2c:55:92:b4:ca:87:a1:66:38:60:32:eb:71:a4:21:95:37:
         8e:50:56:7a:bf:c1:2b:e6:bc:d0:27:22:54:c3:3c:17:3d:33:
         15:6c:5a:fd:9f:55:15:2f:a2:00:31:c0:91:1a:46:a4:34:bf:
         1a:6a:e5:0d:26:81:ba:e9:d5:8b:05:29:73:51:9b:7d:80:d3:
         0c:2c:28:2d:2a:b9:61:80:d6:20:db:ed:ed:60:50:ec:5e:50:
         fb:5c:a4:95:2b:40:9a:66:81:da:db:9a:6a:62:6d:83:d2:c7:
         f9:f4:f1:76:76:cf:37:52:21:1c:18:d2:e6:8f:2a:07:a8:47:
         dd:a3:ba:19:b2:c6:1b:de:ac:a1:1c:0a:40:66:f4:4c:fd:d9:
         e6:3c:c5:c4:7e:6d:62:83:5f:f0:3f:43:4c:11:d3:15:87:3f:
         95:cc:3f:f3:bc:2c:b0:27:d8:1a:0b:d5:ed:0f:c0:0c:07:2a:
         2c:08:c2:7c:77:f2:e6:c5:91:fa:84:e6:00:82:93:0e:b2:d5:
         62:51:25:ce:06:f0:01:82:a7:a1:c1:81:3b:63:b2:42:f5:c4:
         b5:34:80:2e:b9:a3:3e:51:3d:5c:3a:7e:56:c4:ac:9b:8d:e8:
         01:23:e2:2a:a2:63:de:fb:a2:93:f4:cd:20:28:47:2e:84:a3:
         9a:3b:02:62:d0:4c:f2:87:0c:f3:21:7e:b1:90:d2:aa:7b:d9:
         bf:4d:77:8b:d4:33:56:53
-----BEGIN CERTIFICATE-----
MIIFbTCCA1WgAwIBAgIRAMK3ZT7y97kKiJ1l1XID3QAwDQYJKoZIhvcNAQELBQAw
EzERMA8GA1UEAwwIQ2hhbmdlTWUwHhcNMjIwNDMwMjA1MDEzWhcNMzIwNDI3MjA1
MDEzWjASMRAwDgYDVQQDDAdjbGllbnQxMIICIjANBgkqhkiG9w0BAQEFAAOCAg8A
MIICCgKCAgEAwZVLLvBiET1j+MRvcI0iTiVGZ9sOBA/q2517T2jF3urnGKO/sB3B
pa2czgmgLri9XTbXHQkI14A/LyT+4Q4AqqEZV/XKeZ6cqWI8IOAtQHcG58Fm+eGq
AmikRgK5gGSteVO6SqBVUlgaJzWHWe73xDqgrTzqiUZtefRn1IiviF6Crj0tWLqF
bBAHtMXOTuLoEhlSiJi3eFs0q2X9fOF2w3wjLXmGvw/3E+/5jPs8HX3ZBvcf3Wgi
4UD9K44+gor8uSJWFbwJjoPDy+OiaFdqt/U5yXB5Vikkb+Wi77EC8uH/C7Bl12L3
RM4ct5FKityg3tPBRxtneTTydQGtpglDNW+kTPPoONwfS4tGk4/8F3NwId5YGA1n
RDRh0A7B0YCLnd76A1HIrEx/Uw9kFlR+HUUrm8aOKIk6LFH+LQ3+sTN87J5GU7A3
lXgDFyi5dp4hMhm7dB5/buPUBSNxOxE2QS7ObVucrnxlP5iEkU7VvLCsYYtGZr2h
NM4CSpED4TRoCrcopSU42uJqgR+336X5IiDjVLYkYvboIZ9rpQLMMRfGydNND2mW
b31lTohx2Zjcdek+S6Bg0tqeGs7x8cZs1vG5E75migrlyKK4S1bzCaFaDJgHOb9o
m2Pm7w1ow0NGE4vh+T7DKjBXftKv6M8RrnTEM7aZZP/FrE6pmqVq11sCAwEAAaOB
vDCBuTAJBgNVHRMEAjAAMB0GA1UdDgQWBBRSYNOGEM45zd91KNn9nywlPsViATBO
BgNVHSMERzBFgBQMzm33OudLwonp83DGCZoPxzSsLaEXpBUwEzERMA8GA1UEAwwI
Q2hhbmdlTWWCFFlOUmIJB1J0M7ltFlRqyca5hN2+MBMGA1UdJQQMMAoGCCsGAQUF
BwMCMAsGA1UdDwQEAwIHgDAbBgNVHREEFDAShhB1cm46dGVzdDpjbGllbnQxMA0G
CSqGSIb3DQEBCwUAA4ICAQAPB18izuAqbObynq4H5X/x79s8zds4Oia/iCzAd2Ab
9vwxciUPVRXay/11W7EkZjxyZoC7vzKXX3aBlLCz26DIvTap0dDk+bkgzd61EZ2Q
kra5rIZZLs/2Ltur1n/YA44L0k8vAiLMEhyS/bjU/BTknXnICbD/psHgExvFTxXL
JYzQhc3SkMko/b6Xww9BQDatysZG+swX2Qdw+bxD+kCxoJYEi3RqZJ0h4Ac86KdG
j45jzHzhsKEt514tGtLDiNkjLjzPBZ8quWRHBexjcctOvc1Su6MBt2Ak8JJZpP1b
pM4lCGOUJuLB2lIjLFWStMqHoWY4YDLrcaQhlTeOUFZ6v8Er5rzQJyJUwzwXPTMV
bFr9n1UVL6IAMcCRGkakNL8aauUNJoG66dWLBSlzUZt9gNMMLCgtKrlhgNYg2+3t
YFDsXlD7XKSVK0CaZoHa25pqYm2D0sf59PF2ds83UiEcGNLmjyoHqEfdo7oZssYb
3qyhHApAZvRM/dnmPMXEfm1ig1/wP0NMEdMVhz+VzD/zvCywJ9gaC9XtD8AMByos
CMJ8d/LmxZH6hOYAgpMOstViUSXOBvABgqehwYE7Y7JC9cS1NIAuuaM+UT1cOn5W
xKybjegBI+IqomPe+6KT9M0gKEcuhKOaOwJi0EzyhwzzIX6xkNKqe9m/TXeL1DNW
Uw==
-----END CERTIFICATE-----
