Certificate:
    Data:
        Version: 3 (0x2)
        Serial Number:
            02:d0:86:1e:33:d5:62:e9:76:4e:ae:63:9b:5b:a0:d0
        Signature Algorithm: sha256WithRSAEncryption
        Issuer: CN=ChangeMe
        Validity
            Not Before: Apr 30 20:50:14 2022 GMT
            Not After : Apr 27 20:50:14 2032 GMT
        Subject: CN=client1-revoked
        Subject Public Key Info:
            Public Key Algorithm: rsaEncryption
                RSA Public-Key: (4096 bit)
                Modulus:
                    00:d9:ca:d1:cd:c1:ba:45:ab:e1:a7:74:8b:e5:a8:
                    49:2b:c6:60:8d:91:9a:d1:d6:65:6d:b3:75:fa:67:
                    87:0e:95:c2:c2:7c:70:a3:00:b8:33:02:d6:66:9b:
                    93:d5:fb:e4:d5:67:e0:88:e0:2c:f3:c5:81:4e:c6:
                    ce:4e:ba:ec:27:41:16:e3:a4:2c:4c:88:9a:18:38:
                    0f:d9:2f:bf:e7:76:b4:59:80:7b:5d:00:7c:05:40:
                    52:28:6b:41:8d:0f:ae:ee:6a:0c:c9:de:2d:d7:b2:
                    f4:06:b2:6f:ce:50:77:9f:41:c9:14:90:d4:17:67:
                    c8:d7:60:b5:9a:6d:03:75:c2:93:4b:55:ba:ac:46:
                    0b:2f:e0:88:f2:c0:5c:f0:62:72:03:d9:ba:f6:16:
                    0d:e3:f0:95:7a:04:33:6c:4d:2c:b4:dd:76:c4:1b:
                    82:97:0b:12:c2:9b:e2:ed:db:69:75:1c:f9:3f:48:
                    e2:9b:44:7c:68:11:e7:08:b8:90:ba:ac:7b:93:4f:
                    0c:95:7f:5f:aa:12:61:cd:e7:19:5f:ed:bb:1b:2f:
                    02:0f:cb:9c:2b:e0:50:a3:bb:2f:92:9d:80:8a:c4:
                    2f:93:96:f6:b9:ac:80:ea:19:df:be:b1:5c:9e:b2:
                    73:d4:b8:50:a2:23:9b:77:5d:a3:78:31:f7:aa:ce:
                    cf:13:13:c1:8d:e6:58:98:fe:85:b3:30:93:c3:bc:
                    3c:91:23:21:ed:a0:77:5f:f7:69:67:9b:8c:1b:45:
                    d7:7a:60:e0:aa:dd:02:dd:f3:07:84:c2:fb:1f:7e:
                    16:29:2f:00:33:72:4f:54:8e:6a:59:7c:a4:5c:99:
                    37:68:ee:40:ab:a2:6b:35:b6:4d:f3:71:ca:8e:be:
                    77:68:90:92:1d:98:40:e2:b0:67:b5:76:26:c9:43:
                    aa:01:6b:dd:01:70:a9:70:98:1b:ec:e8:a2:5b:48:
                    42:7c:e4:22:6e:d8:38:ff:d9:06:84:35:e7:db:e5:
                    e3:a1:cd:92:2e:ad:c2:50:7d:95:07:1c:c8:22:d6:
                    4d:4d:60:92:9a:6a:b2:ea:e9:0c:b5:0d:c7:00:ec:
                    3c:9c:e2:f8:e5:8d:61:31:5d:e0:74:7d:cb:ef:29:
                    7b:9d:a4:25:3a:60:a3:2a:cd:68:f4:68:2c:2b:fe:
                    fd:1a:89:4e:29:07:00:8d:16:49:e7:48:54:53:c1:
                    f3:d8:a8:1b:f3:5d:86:a1:50:c2:f0:6b:20:d5:87:
                    9d:1b:3c:fe:99:e1:f1:f2:68:e2:f0:79:c1:e9:99:
                    5c:89:c0:1a:f7:2b:14:b0:22:69:d3:d0:48:99:89:
                    be:77:88:c4:7c:7d:ba:9e:77:14:3e:6c:f6:f6:4b:
                    96:d7:5b
                Exponent: 65537 (0x10001)
        X509v3 extensions:
            X509v3 Basic Constraints: 
                CA:FALSE
            X509v3 Subject Key Identifier: 
                8A:22:CA:74:86:F9:43:76:49:6D:26:2C:4E:05:EF:78:7E:93:14:26
            X509v3 Authority Key Identifier: 
                keyid:0C:CE:6D:F7:3A:E7:4B:C2:89:E9:F3:70:C6:09:9A:0F:C7:34:AC:2D
                DirName:/CN=ChangeMe
                serial:59:4E:52:62:09:07:52:74:33:B9:6D:16:54:6A:C9:C6:B9:84:DD:BE

            X509v3 Extended Key Usage: 
                TLS Web Client Authentication
            X509v3 Key Usage: 
                Digital Signature
            X509v3 Subject Alternative Name: 
                URI:urn:test:client1
    Signature Algorithm: sha256WithRSAEncryption
         4c:5f:37:03:7c:cc:79:c9:d0:03:6a:f9:3d:7c:87:7c:a0:b4:
         e6:d4:6e:78:a7:64:a5:bb:77:92:ba:92:77:ce:9e:ea:31:72:
         47:9c:9c:1a:69:87:66:a1:8d:53:24:09:ff:b1:c2:ad:92:83:
         f1:16:dd:81:1e:4a:9b:0b:31:c6:d3:c6:ef:35:a7:8e:91:90:
         57:29:8d:1c:20:67:ee:c1:55:5e:31:ed:d6:7f:9b:f7:8b:53:
         26:a5:9e:30:15:63:37:b6:eb:b1:40:f1:50:6c:5a:46:d8:4f:
         ff:9c:27:c9:40:8b:79:f3:19:3b:ab:32:62:ee:d4:d3:16:79:
         cd:85:6b:9b:65:8b:95:61:85:39:9d:d7:0b:60:c8:82:0d:00:
         53:18:b1:5d:c7:2f:82:36:b3:c7:8e:c0:1c:18:16:a1:bc:83:
         3c:33:9c:a4:65:da:81:56:29:7b:a4:a8:74:9f:3d:44:68:df:
         9c:60:2f:12:03:e4:95:d8:e6:2c:dd:71:22:0e:df:71:ea:ad:
         07:8c:84:a7:48:b5:aa:62:fb:be:0b:03:c6:18:39:01:eb:79:
         6a:80:8e:e7:c7:0e:6d:11:5e:51:a9:fd:3a:1b:d0:07:85:d8:
         38:24:54:66:73:99:8c:44:ff:94:ff:01:bd:24:8c:b7:2a:a9:
         3b:d4:95:91:dd:14:7c:66:75:dc:69:0e:c5:38:af:0d:cf:ed:
         19:e4:6f:d5:57:a5:c4:2d:34:a2:a5:bc:17:3c:95:cc:4b:e5:
         03:a6:ef:fd:db:79:1d:f0:a1:0b:82:01:d3:6c:33:7e:4e:df:
         e2:e4:9b:35:d8:7f:e4:eb:34:9f:97:02:40:ca:5d:f6:81:ed:
         7e:0e:68:ca:81:1c:5f:5b:fb:5c:80:8f:07:ce:d2:37:d0:85:
         e4:c7:a9:6a:08:01:03:79:19:8b:08:51:51:62:fd:97:47:e8:
         0c:d8:12:4a:e8:59:f1:40:8c:41:b1:9d:56:33:0f:93:4b:57:
         6b:5b:cc:6f:96:43:a9:d3:e3:10:81:9c:9b:23:ea:b3:17:1b:
         2b:28:ff:d4:02:94:1e:1f:b9:d0:80:1f:20:d9:45:dc:83:53:
         f3:ce:1a:08:3f:3d:5d:ad:9b:85:e0:c3:98:54:02:2f:b6:3e:
         2b:a4:f3:55:39:af:9b:d8:47:54:b6:21:3b:c7:df:8f:e3:65:
         63:a1:31:3d:70:68:bc:83:d2:9a:80:0b:93:67:44:4e:49:5e:
         95:fc:ec:24:6b:bb:62:aa:20:3b:95:b0:b9:ed:6d:c1:34:a4:
         7b:c6:83:61:ff:b3:72:d9:65:71:62:42:84:62:cb:c6:9b:a9:
         e2:4e:48:bf:92:db:70:48
-----BEGIN CERTIFICATE-----
MIIFdDCCA1ygAwIBAgIQAtCGHjPVYul2Tq5jm1ug0DANBgkqhkiG9w0BAQsFADAT
MREwDwYDVQQDDAhDaGFuZ2VNZTAeFw0yMjA0MzAyMDUwMTRaFw0zMjA0MjcyMDUw
MTRaMBoxGDAWBgNVBAMMD2NsaWVudDEtcmV2b2tlZDCCAiIwDQYJKoZIhvcNAQEB
BQADggIPADCCAgoCggIBANnK0c3BukWr4ad0i+WoSSvGYI2RmtHWZW2zdfpnhw6V
wsJ8cKMAuDMC1mabk9X75NVn4IjgLPPFgU7Gzk667CdBFuOkLEyImhg4D9kvv+d2
tFmAe10AfAVAUihrQY0Pru5qDMneLdey9Aayb85Qd59ByRSQ1BdnyNdgtZptA3XC
k0tVuqxGCy/giPLAXPBicgPZuvYWDePwlXoEM2xNLLTddsQbgpcLEsKb4u3baXUc
+T9I4ptEfGgR5wi4kLqse5NPDJV/X6oSYc3nGV/tuxsvAg/LnCvgUKO7L5KdgIrE
L5OW9rmsgOoZ376xXJ6yc9S4UKIjm3ddo3gx96rOzxMTwY3mWJj+hbMwk8O8PJEj
Ie2gd1/3aWebjBtF13pg4KrdAt3zB4TC+x9+FikvADNyT1SOall8pFyZN2juQKui
azW2TfNxyo6+d2iQkh2YQOKwZ7V2JslDqgFr3QFwqXCYG+zooltIQnzkIm7YOP/Z
BoQ159vl46HNki6twlB9lQccyCLWTU1gkppqsurpDLUNxwDsPJzi+OWNYTFd4HR9
y+8pe52kJTpgoyrNaPRoLCv+/RqJTikHAI0WSedIVFPB89ioG/NdhqFQwvBrINWH
nRs8/pnh8fJo4vB5wemZXInAGvcrFLAiadPQSJmJvneIxHx9up53FD5s9vZLltdb
AgMBAAGjgbwwgbkwCQYDVR0TBAIwADAdBgNVHQ4EFgQUiiLKdIb5Q3ZJbSYsTgXv
eH6TFCYwTgYDVR0jBEcwRYAUDM5t9zrnS8KJ6fNwxgmaD8c0rC2hF6QVMBMxETAP
BgNVBAMMCENoYW5nZU1lghRZTlJiCQdSdDO5bRZUasnGuYTdvjATBgNVHSUEDDAK
BggrBgEFBQcDAjALBgNVHQ8EBAMCB4AwGwYDVR0RBBQwEoYQdXJuOnRlc3Q6Y2xp
ZW50MTANBgkqhkiG9w0BAQsFAAOCAgEATF83A3zMecnQA2r5PXyHfKC05tRueKdk
pbt3krqSd86e6jFyR5ycGmmHZqGNUyQJ/7HCrZKD8RbdgR5KmwsxxtPG7zWnjpGQ
VymNHCBn7sFVXjHt1n+b94tTJqWeMBVjN7brsUDxUGxaRthP/5wnyUCLefMZO6sy
Yu7U0xZ5zYVrm2WLlWGFOZ3XC2DIgg0AUxixXccvgjazx47AHBgWobyDPDOcpGXa
gVYpe6SodJ89RGjfnGAvEgPkldjmLN1xIg7fceqtB4yEp0i1qmL7vgsDxhg5Aet5
aoCO58cObRFeUan9OhvQB4XYOCRUZnOZjET/lP8BvSSMtyqpO9SVkd0UfGZ13GkO
xTivDc/tGeRv1VelxC00oqW8FzyVzEvlA6bv/dt5HfChC4IB02wzfk7f4uSbNdh/
5Os0n5cCQMpd9oHtfg5oyoEcX1v7XICPB87SN9CF5MepaggBA3kZiwhRUWL9l0fo
DNgSSuhZ8UCMQbGdVjMPk0tXa1vMb5ZDqdPjEIGcmyPqsxcbKyj/1AKUHh+50IAf
INlF3INT884aCD89Xa2bheDDmFQCL7Y+K6TzVTmvm9hHVLYhO8ffj+NlY6ExPXBo
vIPSmoALk2dETklelfzsJGu7YqogO5Wwue1twTSke8aDYf+zctllcWJChGLLxpup
4k5Iv5LbcEg=
-----END CERTIFICATE-----
