Certificate:
    Data:
        Version: 3 (0x2)
        Serial Number:
            2f:8c:f8:44:c3:c1:93:e3:b9:98:00:21:15:16:15:ed
        Signature Algorithm: sha256WithRSAEncryption
        Issuer: CN=ChangeMe
        Validity
            Not Before: Apr 30 20:50:12 2022 GMT
            Not After : Apr 27 20:50:12 2032 GMT
        Subject: CN=server1
        Subject Public Key Info:
            Public Key Algorithm: rsaEncryption
                RSA Public-Key: (4096 bit)
                Modulus:
                    00:cd:b6:e3:73:ce:93:b0:f4:a7:da:6e:32:a5:e3:
                    54:e9:7e:a9:38:9e:04:4e:97:c9:2f:43:29:f2:cd:
                    21:5f:8e:6e:56:e6:9b:d2:bc:b6:74:95:a0:03:98:
                    02:6c:53:1f:85:2e:d0:7d:15:2d:a7:8c:65:d1:b3:
                    b3:1a:df:95:b0:0d:8a:b7:1f:e9:96:4c:d1:23:75:
                    99:26:44:ca:87:99:57:d9:6e:2f:b9:30:61:58:c6:
                    2b:7d:43:a8:eb:b3:76:dc:77:4c:20:c4:36:e0:3c:
                    fe:4e:e8:5d:1d:26:f7:9a:03:f9:32:9d:4f:08:ce:
                    27:ab:94:56:67:e9:b5:b7:48:d0:76:91:6c:28:89:
                    e2:3b:3b:ad:0f:ce:31:1e:55:33:08:e8:9b:6c:36:
                    87:77:b1:7e:fc:45:52:49:9e:b8:93:ed:a0:a9:a2:
                    8a:58:03:04:67:db:0f:1b:3e:0e:86:8e:39:8c:e1:
                    38:c6:b0:cc:49:ce:ce:7e:26:d5:7f:1c:42:42:92:
                    48:4a:90:c9:46:f6:2a:3f:4d:ad:0e:b2:49:23:e2:
                    25:fa:fc:d6:22:28:68:4c:49:88:97:a6:79:5a:5c:
                    10:c2:8e:53:f5:10:a4:8f:6d:b3:9c:24:09:08:42:
                    c7:5d:5b:97:c9:17:d4:98:3f:1e:47:9c:54:a3:b6:
                    29:b3:11:d8:d0:b9:e4:92:ee:72:91:0f:e8:92:34:
                    01:92:77:1f:fb:8a:d8:86:63:8a:fd:72:16:dc:ab:
                    92:45:ae:cb:4b:f7:76:f9:31:c0:c9:0e:be:d5:1e:
                    72:38:4b:34:73:47:e3:08:18:8e:d5:5b:02:0e:cf:
                    bb:00:6d:a7:0a:d2:19:77:6b:04:a3:79:9e:59:f7:
                    49:cc:20:7b:d4:88:98:55:2c:9a:a1:19:fa:91:0b:
                    90:11:44:0e:fe:84:bf:cc:a6:9f:c3:ad:f6:70:15:
                    f0:fa:7f:08:55:e2:91:d9:8d:37:81:93:4b:61:5e:
                    ee:1e:f8:88:0a:4c:ec:28:12:ec:99:f5:8f:63:f4:
                    59:c3:30:e6:14:56:74:96:61:bf:d2:b1:0a:a1:d8:
                    42:e0:1e:a6:00:ef:e6:26:ba:75:62:77:79:f1:6f:
                    83:0d:a3:11:f0:e7:7a:e3:1c:0e:75:58:cf:ea:ba:
                    aa:ac:27:fc:c7:a3:0c:fd:6b:d4:0e:53:90:32:4d:
                    2f:d9:df:b2:b1:d8:64:d2:ed:12:b9:fa:0f:a4:7c:
                    7d:87:f5:2f:11:fc:c5:7b:be:4c:3a:f2:9f:16:81:
                    c1:e9:d8:59:db:b6:50:9c:9f:0d:d8:32:3e:c8:dc:
                    17:b4:06:56:73:bc:75:88:b1:01:3c:77:83:77:62:
                    84:2b:db
                Exponent: 65537 (0x10001)
        X509v3 extensions:
            X509v3 Basic Constraints: 
                CA:FALSE
            X509v3 Subject Key Identifier: 
                D3:5F:C5:1F:6E:B6:7B:C2:F8:09:48:78:60:E3:A2:FC:AB:CA:68:DD
            X509v3 Authority Key Identifier: 
                keyid:0C:CE:6D:F7:3A:E7:4B:C2:89:E9:F3:70:C6:09:9A:0F:C7:34:AC:2D
                DirName:/CN=ChangeMe
                serial:59:4E:52:62:09:07:52:74:33:B9:6D:16:54:6A:C9:C6:B9:84:DD:BE

            X509v3 Extended Key Usage: 
                TLS Web Server Authentication
            X509v3 Key Usage: 
                Digital Signature, Key Encipherment
            X509v3 Subject Alternative Name: 
                DNS:server1
    Signature Algorithm: sha256WithRSAEncryption
         74:b8:ca:19:75:93:8d:e0:69:a7:f6:d3:4f:10:00:c0:e9:cf:
         16:0c:67:e0:f4:f3:39:f9:1c:1a:d1:11:8f:36:0b:db:ba:af:
         b4:65:8b:ba:a6:16:4c:1a:67:4a:f8:9f:3d:0e:8c:09:33:9b:
         99:06:99:c1:9d:92:f5:c7:76:52:a4:56:60:09:95:1f:66:a9:
         86:4f:f9:80:87:3d:93:5a:85:d1:02:3b:e9:0b:14:03:bf:61:
         28:91:dd:a4:28:8d:10:7b:66:70:d4:9b:35:60:a3:06:fd:cb:
         77:87:3b:f4:ba:7c:a1:64:5c:79:b9:f2:c8:9a:b7:8c:10:e1:
         67:30:10:dc:b9:06:54:81:c7:7c:d5:82:98:22:b0:f0:24:49:
         bc:62:94:15:0d:e1:69:ea:a6:ef:b5:25:41:8b:fa:75:d4:5a:
         67:b5:15:8e:d0:96:c6:0f:66:b4:0a:24:5c:24:fd:66:13:c7:
         30:d8:74:bb:c6:4b:a3:14:11:82:eb:9e:1c:dd:f5:df:de:71:
         2e:f7:48:f0:b6:1c:a3:1d:46:1d:64:70:8b:92:2e:08:da:d5:
         aa:75:6f:8f:b6:95:22:38:21:0a:5f:ee:08:85:04:64:93:18:
         e2:af:6b:af:a1:2c:0d:ab:37:7f:f4:1c:01:87:53:be:fb:3b:
         7b:ca:00:55:b8:38:8e:54:b0:cc:12:4a:57:20:59:d9:74:77:
         da:53:0a:41:4a:9c:8b:5a:f1:e0:27:2a:6d:0c:b6:d4:89:04:
         fb:ff:bc:da:df:a6:d1:fe:db:79:45:a6:56:f4:99:b5:41:17:
         6b:25:e4:d3:0b:27:0e:f3:1b:1a:8c:e0:30:ba:d7:fd:4a:40:
         61:5b:05:44:f3:46:80:46:80:96:e5:a0:8c:4a:af:1a:55:f9:
         1d:b1:57:1b:b1:63:bf:db:f8:56:46:51:0f:21:a8:90:1f:7b:
         de:e1:a3:e2:de:2a:4f:1f:57:e7:57:f6:7a:b4:ac:38:3a:e9:
         55:f8:b2:ac:bf:14:84:6b:38:54:46:a5:3b:d8:9a:82:ef:83:
         e9:71:d3:c9:97:49:80:de:75:bc:53:6b:9a:1c:cd:ba:5d:62:
         2e:43:82:35:2f:0c:f0:3b:5d:7c:f0:92:ba:c6:b6:c8:d7:a8:
         02:13:87:78:88:9a:a7:3d:26:dc:cc:aa:9d:e0:28:a8:9d:50:
         c0:a2:b1:cb:17:05:7a:eb:ff:5d:99:47:77:79:ba:67:69:70:
         28:71:5e:fb:42:90:b9:37:c9:cf:04:2a:71:e2:ee:ea:66:1c:
         c4:a2:62:9d:42:65:5c:8f:4f:b4:1e:9e:44:cf:44:88:fd:c5:
         31:4d:6e:db:c9:2b:ae:68
-----BEGIN CERTIFICATE-----
MIIFYzCCA0ugAwIBAgIQL4z4RMPBk+O5mAAhFRYV7TANBgkqhkiG9w0BAQsFADAT
MREwDwYDVQQDDAhDaGFuZ2VNZTAeFw0yMjA0MzAyMDUwMTJaFw0zMjA0MjcyMDUw
MTJaMBIxEDAOBgNVBAMMB3NlcnZlcjEwggIiMA0GCSqGSIb3DQEBAQUAA4ICDwAw
ggIKAoICAQDNtuNzzpOw9KfabjKl41Tpfqk4ngROl8kvQynyzSFfjm5W5pvSvLZ0
laADmAJsUx+FLtB9FS2njGXRs7Ma35WwDYq3H+mWTNEjdZkmRMqHmVfZbi+5MGFY
xit9Q6jrs3bcd0wgxDbgPP5O6F0dJveaA/kynU8IzierlFZn6bW3SNB2kWwoieI7
O60PzjEeVTMI6JtsNod3sX78RVJJnriT7aCpoopYAwRn2w8bPg6GjjmM4TjGsMxJ
zs5+JtV/HEJCkkhKkMlG9io/Ta0Oskkj4iX6/NYiKGhMSYiXpnlaXBDCjlP1EKSP
bbOcJAkIQsddW5fJF9SYPx5HnFSjtimzEdjQueSS7nKRD+iSNAGSdx/7itiGY4r9
chbcq5JFrstL93b5McDJDr7VHnI4SzRzR+MIGI7VWwIOz7sAbacK0hl3awSjeZ5Z
90nMIHvUiJhVLJqhGfqRC5ARRA7+hL/Mpp/DrfZwFfD6fwhV4pHZjTeBk0thXu4e
+IgKTOwoEuyZ9Y9j9FnDMOYUVnSWYb/SsQqh2ELgHqYA7+YmunVid3nxb4MNoxHw
53rjHA51WM/quqqsJ/zHowz9a9QOU5AyTS/Z37Kx2GTS7RK5+g+kfH2H9S8R/MV7
vkw68p8WgcHp2FnbtlCcnw3YMj7I3Be0BlZzvHWIsQE8d4N3YoQr2wIDAQABo4Gz
MIGwMAkGA1UdEwQCMAAwHQYDVR0OBBYEFNNfxR9utnvC+AlIeGDjovyrymjdME4G
A1UdIwRHMEWAFAzObfc650vCienzcMYJmg/HNKwtoRekFTATMREwDwYDVQQDDAhD
aGFuZ2VNZYIUWU5SYgkHUnQzuW0WVGrJxrmE3b4wEwYDVR0lBAwwCgYIKwYBBQUH
AwEwCwYDVR0PBAQDAgWgMBIGA1UdEQQLMAmCB3NlcnZlcjEwDQYJKoZIhvcNAQEL
BQADggIBAHS4yhl1k43gaaf2008QAMDpzxYMZ+D08zn5HBrREY82C9u6r7Rli7qm
FkwaZ0r4nz0OjAkzm5kGmcGdkvXHdlKkVmAJlR9mqYZP+YCHPZNahdECO+kLFAO/
YSiR3aQojRB7ZnDUmzVgowb9y3eHO/S6fKFkXHm58siat4wQ4WcwENy5BlSBx3zV
gpgisPAkSbxilBUN4Wnqpu+1JUGL+nXUWme1FY7QlsYPZrQKJFwk/WYTxzDYdLvG
S6MUEYLrnhzd9d/ecS73SPC2HKMdRh1kcIuSLgja1ap1b4+2lSI4IQpf7giFBGST
GOKva6+hLA2rN3/0HAGHU777O3vKAFW4OI5UsMwSSlcgWdl0d9pTCkFKnIta8eAn
Km0MttSJBPv/vNrfptH+23lFplb0mbVBF2sl5NMLJw7zGxqM4DC61/1KQGFbBUTz
RoBGgJbloIxKrxpV+R2xVxuxY7/b+FZGUQ8hqJAfe97ho+LeKk8fV+dX9nq0rDg6
6VX4sqy/FIRrOFRGpTvYmoLvg+lx08mXSYDedbxTa5oczbpdYi5DgjUvDPA7XXzw
krrGtsjXqAITh3iImqc9JtzMqp3gKKidUMCiscsXBXrr/12ZR3d5umdpcChxXvtC
kLk3yc8EKnHi7upmHMSiYp1CZVyPT7QenkTPRIj9xTFNbtvJK65o
-----END CERTIFICATE-----
