Certificate:
    Data:
        Version: 3 (0x2)
        Serial Number:
            14:ef:7d:11:94:c9:d7:2c:5e:cd:e9:21:eb:d1:62:b3
        Signature Algorithm: sha256WithRSAEncryption
        Issuer: CN=ChangeMe
        Validity
            Not Before: Apr 30 20:50:13 2022 GMT
            Not After : Apr 27 20:50:13 2032 GMT
        Subject: CN=server1-revoked
        Subject Public Key Info:
            Public Key Algorithm: rsaEncryption
                RSA Public-Key: (4096 bit)
                Modulus:
                    00:aa:88:ee:95:a9:98:95:f3:7e:ed:82:89:dd:9d:
                    9f:12:b5:20:ca:f7:0f:11:a0:74:5b:82:f9:8f:85:
                    91:a0:17:44:8c:e4:0a:f1:98:18:f3:ff:39:71:81:
                    86:76:05:c5:c2:30:79:19:90:59:b7:0d:45:66:1e:
                    7c:66:8f:8b:b8:bb:26:d9:6b:e6:32:52:98:2a:e4:
                    86:99:58:97:d2:2d:9d:b9:db:58:87:e3:a2:a2:0e:
                    65:e7:53:a9:b2:c7:f2:86:6f:e5:7b:81:9f:9c:3a:
                    55:8d:51:7d:3e:61:54:7c:dc:98:67:42:93:1f:b2:
                    e6:d8:c8:ad:0d:51:84:24:39:06:b0:d3:a8:e8:76:
                    db:3c:c6:ee:75:b2:f7:b5:a1:4e:7c:c8:70:4e:1b:
                    72:d5:ae:38:8c:db:9c:31:6d:ab:00:f8:92:6a:af:
                    c8:ff:8f:b9:b6:1d:eb:67:58:95:e0:56:02:e7:32:
                    19:43:b1:d3:95:97:2f:6b:7a:88:28:bc:26:05:78:
                    07:91:8d:ac:b9:d5:64:93:cd:d2:08:25:bb:d9:ca:
                    46:9c:4c:9a:58:b9:a4:04:49:18:a0:92:30:76:44:
                    c0:12:8f:f2:a4:86:64:ca:06:03:dd:83:ff:dd:16:
                    b9:b6:e1:e0:9e:41:7f:a4:e5:cf:85:b2:ac:25:1c:
                    9a:9e:07:67:6f:25:bf:53:9f:cd:6b:4e:89:11:3d:
                    78:d1:4b:28:55:1c:8c:6e:c7:b2:6d:c9:08:4d:a6:
                    6e:d1:a3:51:24:5d:0c:2b:b8:d7:fb:9d:2f:6c:01:
                    e7:fa:1b:36:a3:73:4a:04:2c:9f:51:32:bc:b7:a2:
                    e0:b7:65:f3:19:5e:5a:c6:dd:e9:10:90:d6:14:2c:
                    fb:d6:ef:9a:4f:88:41:77:20:6c:8b:3a:7f:4d:4b:
                    53:fc:9c:6b:96:c4:63:c7:c3:01:6b:22:5b:31:3c:
                    52:ef:10:93:06:9f:fe:f2:f4:08:f3:94:74:da:85:
                    ce:d2:66:69:15:d4:bb:79:e6:07:6f:20:e9:5d:1e:
                    bf:a3:0b:db:58:48:30:80:f7:79:f9:7b:df:77:1c:
                    2e:a1:40:33:66:20:be:04:44:c2:80:11:e2:86:cc:
                    a9:44:1c:5e:c7:34:a8:f0:a5:80:10:d3:0f:6a:88:
                    4c:de:1d:b1:10:e8:5d:34:2a:4f:e3:82:62:d8:bb:
                    14:1d:c1:5e:b9:89:27:a9:77:f0:a7:f4:3b:eb:ad:
                    b9:c1:d6:fe:ad:c2:d3:d8:09:5a:74:bb:06:ea:ee:
                    24:cd:66:5a:fa:e0:7f:bf:6a:14:53:f3:ac:7f:53:
                    c7:fb:e1:dd:02:8d:10:8a:96:91:fa:61:85:b8:66:
                    d9:a8:b9
                Exponent: 65537 (0x10001)
        X509v3 extensions:
            X509v3 Basic Constraints: 
                CA:FALSE
            X509v3 Subject Key Identifier: 
                A4:CC:2F:5D:66:08:70:D2:60:BC:E9:54:32:F8:7F:4B:A1:1B:4A:EA
            X509v3 Authority Key Identifier: 
                keyid:0C:CE:6D:F7:3A:E7:4B:C2:89:E9:F3:70:C6:09:9A:0F:C7:34:AC:2D
                DirName:/CN=ChangeMe
                serial:59:4E:52:62:09:07:52:74:33:B9:6D:16:54:6A:C9:C6:B9:84:DD:BE

            X509v3 Extended Key Usage: 
                TLS Web Server Authentication
            X509v3 Key Usage: 
                Digital Signature, Key Encipherment
            X509v3 Subject Alternative Name: 
                DNS:server1
    Signature Algorithm: sha256WithRSAEncryption
         5e:d4:83:11:82:ba:29:7c:a0:3a:f4:4d:72:e6:28:ed:9b:7c:
         02:aa:94:b9:3e:5d:ff:d2:44:76:35:3e:a2:47:d9:b9:2e:5b:
         35:e2:27:79:28:52:53:6f:02:6e:52:53:51:7e:8f:01:9a:cd:
         2e:65:b3:e9:b6:4e:9e:38:66:29:9f:0b:95:42:ba:65:d8:93:
         c5:19:3d:b1:21:bd:d9:5d:94:e1:c3:ac:16:4f:83:9a:4b:82:
         72:f1:84:ce:5e:2e:3e:9f:9f:16:66:c9:e1:a4:2a:21:02:d4:
         88:06:f2:57:e9:96:a3:ae:a4:83:44:ef:99:82:df:89:a1:1e:
         d8:9a:ed:48:bd:0d:c3:c2:de:8d:e8:2a:1d:ba:7e:49:99:5f:
         b2:51:74:45:e3:0c:01:2e:27:fb:5d:bc:e5:5b:66:89:74:c1:
         67:3c:5e:5d:bd:9e:62:f2:e1:5d:9b:15:98:2f:06:53:c6:03:
         69:37:7f:7f:82:2c:49:13:a6:2b:40:c6:b0:6f:e7:3d:a2:f5:
         a4:a5:c5:8d:c8:cb:ee:c6:cc:fa:b1:d1:e8:71:a5:3e:6b:37:
         f1:44:85:45:99:69:06:18:14:8c:86:62:a1:10:9d:c9:af:07:
         d9:2f:0e:ce:e3:50:84:6e:a9:3c:42:1c:61:1a:4e:f5:4d:38:
         30:6d:62:e8:a5:90:f5:e1:0f:4f:7e:6b:84:cd:e9:f7:b0:f6:
         3e:ec:fe:51:5b:0e:80:6e:98:20:7e:a9:10:d9:e5:58:3f:1e:
         c1:de:e5:8d:95:72:d0:79:c6:ff:6e:3e:33:fd:30:76:a5:ec:
         b6:61:bf:bb:9f:3a:9e:88:59:40:d0:6b:6d:0e:6f:8f:32:cc:
         f8:43:bd:69:c6:20:ac:f0:f3:8e:3e:22:89:27:77:3f:85:6f:
         a8:c7:1c:cf:55:e9:27:e6:57:e9:0f:a5:96:37:78:5f:f1:f1:
         e0:9f:23:3f:d2:c2:b5:64:3a:88:45:77:a7:9d:be:09:3c:52:
         7c:a3:9f:03:6e:60:f4:66:f2:ab:12:ec:54:4b:34:80:2e:ff:
         54:63:95:7f:7d:94:ab:bb:3e:1d:fe:d2:fe:c4:25:1b:8c:d4:
         cf:e4:6c:3e:6c:c5:d6:d7:c4:35:03:7c:cb:9a:e9:60:89:55:
         fc:34:d5:da:a4:76:c9:78:89:fb:60:f5:28:fc:c9:c0:23:51:
         5e:69:f3:23:aa:8d:e2:19:ab:7d:c5:9f:f3:fe:20:b3:bd:ec:
         40:b6:56:75:fe:8c:78:d9:cc:8d:90:8f:b5:55:d3:c9:ee:1b:
         91:33:2a:6d:a2:18:42:aa:a0:ca:78:6f:a6:34:26:c8:c4:2e:
         5a:db:26:7e:3e:2c:70:76
-----BEGIN CERTIFICATE-----
MIIFazCCA1OgAwIBAgIQFO99EZTJ1yxezekh69FiszANBgkqhkiG9w0BAQsFADAT
MREwDwYDVQQDDAhDaGFuZ2VNZTAeFw0yMjA0MzAyMDUwMTNaFw0zMjA0MjcyMDUw
MTNaMBoxGDAWBgNVBAMMD3NlcnZlcjEtcmV2b2tlZDCCAiIwDQYJKoZIhvcNAQEB
BQADggIPADCCAgoCggIBAKqI7pWpmJXzfu2Cid2dnxK1IMr3DxGgdFuC+Y+FkaAX
RIzkCvGYGPP/OXGBhnYFxcIweRmQWbcNRWYefGaPi7i7Jtlr5jJSmCrkhplYl9It
nbnbWIfjoqIOZedTqbLH8oZv5XuBn5w6VY1RfT5hVHzcmGdCkx+y5tjIrQ1RhCQ5
BrDTqOh22zzG7nWy97WhTnzIcE4bctWuOIzbnDFtqwD4kmqvyP+PubYd62dYleBW
AucyGUOx05WXL2t6iCi8JgV4B5GNrLnVZJPN0gglu9nKRpxMmli5pARJGKCSMHZE
wBKP8qSGZMoGA92D/90Wubbh4J5Bf6Tlz4WyrCUcmp4HZ28lv1OfzWtOiRE9eNFL
KFUcjG7Hsm3JCE2mbtGjUSRdDCu41/udL2wB5/obNqNzSgQsn1EyvLei4Ldl8xle
Wsbd6RCQ1hQs+9bvmk+IQXcgbIs6f01LU/yca5bEY8fDAWsiWzE8Uu8Qkwaf/vL0
CPOUdNqFztJmaRXUu3nmB28g6V0ev6ML21hIMID3efl733ccLqFAM2YgvgREwoAR
4obMqUQcXsc0qPClgBDTD2qITN4dsRDoXTQqT+OCYti7FB3BXrmJJ6l38Kf0O+ut
ucHW/q3C09gJWnS7BuruJM1mWvrgf79qFFPzrH9Tx/vh3QKNEIqWkfphhbhm2ai5
AgMBAAGjgbMwgbAwCQYDVR0TBAIwADAdBgNVHQ4EFgQUpMwvXWYIcNJgvOlUMvh/
S6EbSuowTgYDVR0jBEcwRYAUDM5t9zrnS8KJ6fNwxgmaD8c0rC2hF6QVMBMxETAP
BgNVBAMMCENoYW5nZU1lghRZTlJiCQdSdDO5bRZUasnGuYTdvjATBgNVHSUEDDAK
BggrBgEFBQcDATALBgNVHQ8EBAMCBaAwEgYDVR0RBAswCYIHc2VydmVyMTANBgkq
hkiG9w0BAQsFAAOCAgEAXtSDEYK6KXygOvRNcuYo7Zt8AqqUuT5d/9JEdjU+okfZ
uS5bNeIneShSU28CblJTUX6PAZrNLmWz6bZOnjhmKZ8LlUK6ZdiTxRk9sSG92V2U
4cOsFk+DmkuCcvGEzl4uPp+fFmbJ4aQqIQLUiAbyV+mWo66kg0TvmYLfiaEe2Jrt
SL0Nw8LejegqHbp+SZlfslF0ReMMAS4n+1285VtmiXTBZzxeXb2eYvLhXZsVmC8G
U8YDaTd/f4IsSROmK0DGsG/nPaL1pKXFjcjL7sbM+rHR6HGlPms38USFRZlpBhgU
jIZioRCdya8H2S8OzuNQhG6pPEIcYRpO9U04MG1i6KWQ9eEPT35rhM3p97D2Puz+
UVsOgG6YIH6pENnlWD8ewd7ljZVy0HnG/24+M/0wdqXstmG/u586nohZQNBrbQ5v
jzLM+EO9acYgrPDzjj4iiSd3P4VvqMccz1XpJ+ZX6Q+lljd4X/Hx4J8jP9LCtWQ6
iEV3p52+CTxSfKOfA25g9GbyqxLsVEs0gC7/VGOVf32Uq7s+Hf7S/sQlG4zUz+Rs
PmzF1tfENQN8y5rpYIlV/DTV2qR2yXiJ+2D1KPzJwCNRXmnzI6qN4hmrfcWf8/4g
s73sQLZWdf6MeNnMjZCPtVXTye4bkTMqbaIYQqqgynhvpjQmyMQuWtsmfj4scHY=
-----END CERTIFICATE-----
